target datalayout = "e-m:e-p270:32:32-p271:32:32-p272:64:64-i64:64-i128:128-f80:128-n8:16:32:64-S128"
target triple = "x86_64-pc-linux-gnu"

@.str.1 = private unnamed_addr constant [10 x i8] c"genfile.c\00", align 1
@.str.27 = private unnamed_addr constant [38 x i8] c"tablespace with OID %u does not exist\00", align 1
@__func__.pg_ls_tmpdir = private unnamed_addr constant [13 x i8] c"pg_ls_tmpdir\00", align 1

; Function Attrs: inlinehint nounwind uwtable
define internal i64 @ObjectIdGetDatum(i32 noundef %0) #3 {
  %2 = alloca i32, align 4
  store i32 %0, ptr %2, align 4
  %3 = load i32, ptr %2, align 4
  %4 = zext i32 %3 to i64
  ret i64 %4
}

; Function Attrs: nounwind uwtable
define internal i64 @pg_ls_tmpdir(ptr noundef %0, i32 noundef %1) #0 {
  %3 = alloca ptr, align 8
  %4 = alloca i32, align 4
  %5 = alloca [1024 x i8], align 16
  store ptr %0, ptr %3, align 8
  store i32 %1, ptr %4, align 4
  call void @llvm.lifetime.start.p0(i64 1024, ptr %5) #9
  %6 = load i32, ptr %4, align 4
  %7 = call i64 @ObjectIdGetDatum(i32 noundef %6)
  %8 = call zeroext i1 @SearchSysCacheExists(i32 noundef 69, i64 noundef %7, i64 noundef 0, i64 noundef 0, i64 noundef 0)
  br i1 %8, label %22, label %9

9:                                                ; preds = %2
  br label %10

10:                                               ; preds = %9
  br i1 true, label %11, label %13

11:                                               ; preds = %10
  %12 = call zeroext i1 @errstart_cold(i32 noundef 21, ptr noundef null) #10
  br i1 %12, label %15, label %19

13:                                               ; preds = %10
  %14 = call zeroext i1 @errstart(i32 noundef 21, ptr noundef null)
  br i1 %14, label %15, label %19

15:                                               ; preds = %13, %11
  %16 = call i32 @errcode(i32 noundef 67137668)
  %17 = load i32, ptr %4, align 4
  %18 = call i32 (ptr, ...) @errmsg(ptr noundef @.str.27, i32 noundef %17)
  call void @errfinish(ptr noundef @.str.1, i32 noundef 657, ptr noundef @__func__.pg_ls_tmpdir)
  br label %19

19:                                               ; preds = %15, %13, %11
  unreachable

20:                                               ; No predecessors!
  br label %21

21:                                               ; preds = %20
  br label %22

22:                                               ; preds = %21, %2
  %23 = getelementptr inbounds [1024 x i8], ptr %5, i64 0, i64 0
  %24 = load i32, ptr %4, align 4
  call void @TempTablespacePath(ptr noundef %23, i32 noundef %24)
  %25 = load ptr, ptr %3, align 8
  %26 = getelementptr inbounds [1024 x i8], ptr %5, i64 0, i64 0
  %27 = call i64 @pg_ls_dir_files(ptr noundef %25, ptr noundef %26, i1 noundef zeroext true)
  call void @llvm.lifetime.end.p0(i64 1024, ptr %5) #9
  ret i64 %27
}