; Function Attrs: nounwind uwtable
define internal fastcc void @pg_ls_tmpdir(ptr noundef %0, i32 noundef %1) unnamed_addr #0 {
  %3 = alloca [1024 x i8], align 16
  call void @llvm.lifetime.start.p0(i64 1024, ptr nonnull %3) #9
  %4 = zext i32 %1 to i64
  %5 = tail call zeroext i1 @SearchSysCacheExists(i32 noundef 69, i64 noundef %4, i64 noundef 0, i64 noundef 0, i64 noundef 0) #9
  br i1 %5, label %10, label %6

6:                                                ; preds = %2
  %7 = tail call zeroext i1 @errstart_cold(i32 noundef 21, ptr noundef null) #10
  tail call void @llvm.assume(i1 %7)
  %8 = tail call i32 @errcode(i32 noundef 67137668) #9
  %9 = tail call i32 (ptr, ...) @errmsg(ptr noundef nonnull @.str.27, i32 noundef %1) #9
  tail call void @errfinish(ptr noundef nonnull @.str.1, i32 noundef 657, ptr noundef nonnull @__func__.pg_ls_tmpdir) #9
  unreachable

10:                                               ; preds = %2
  call void @TempTablespacePath(ptr noundef nonnull %3, i32 noundef %1) #9
  call fastcc void @pg_ls_dir_files(ptr noundef %0, ptr noundef nonnull %3, i1 noundef zeroext true)
  call void @llvm.lifetime.end.p0(i64 1024, ptr nonnull %3) #9
  ret void
}